; Function Attrs: mustprogress uwtable
define hidden noundef ptr @_ZN7datalog21table_relation_plugin10mk_join_fnERKNS_13relation_baseES3_jPKjS5_(ptr noundef nonnull readonly align 8 captures(none) dereferenceable(48) %0, ptr noundef nonnull align 8 dereferenceable(28) %1, ptr noundef nonnull align 8 dereferenceable(28) %2, i32 noundef %3, ptr noundef %4, ptr noundef %5) unnamed_addr #3 align 2 personality ptr @__gxx_personality_v0 {
  %7 = getelementptr inbounds nuw i8, ptr %1, i64 8
  %8 = load ptr, ptr %7, align 8, !tbaa !54
  %9 = getelementptr inbounds nuw i8, ptr %8, i64 32
  %10 = load i32, ptr %9, align 8, !tbaa !55
  %11 = icmp eq i32 %10, 1
  br i1 %11, label %12, label %31

12:                                               ; preds = %6
  %13 = getelementptr inbounds nuw i8, ptr %2, i64 8
  %14 = load ptr, ptr %13, align 8, !tbaa !54
  %15 = getelementptr inbounds nuw i8, ptr %14, i64 32
  %16 = load i32, ptr %15, align 8, !tbaa !55
  %17 = icmp eq i32 %16, 1
  br i1 %17, label %18, label %31

18:                                               ; preds = %12
  %19 = getelementptr inbounds nuw i8, ptr %0, i64 24
  %20 = load ptr, ptr %19, align 8, !tbaa !23
  %21 = getelementptr inbounds nuw i8, ptr %1, i64 32
  %22 = load ptr, ptr %21, align 8, !tbaa !47
  %23 = getelementptr inbounds nuw i8, ptr %2, i64 32
  %24 = load ptr, ptr %23, align 8, !tbaa !47
  %25 = tail call noundef ptr @_ZN7datalog16relation_manager10mk_join_fnERKNS_10table_baseES3_jPKjS5_(ptr noundef nonnull align 8 dereferenceable(200) %20, ptr noundef nonnull align 8 dereferenceable(36) %22, ptr noundef nonnull align 8 dereferenceable(36) %24, i32 noundef %3, ptr noundef %4, ptr noundef %5)
  %.not = icmp eq ptr %25, null
  br i1 %.not, label %31, label %26

26:                                               ; preds = %18
  %27 = tail call noalias noundef ptr @_ZN6memory8allocateEm(i64 noundef 48)
  %28 = getelementptr inbounds nuw i8, ptr %1, i64 16
  %29 = getelementptr inbounds nuw i8, ptr %2, i64 16
  tail call void @_ZN7datalog17tr_infrastructureINS_15relation_traitsEE26convenient_join_project_fnC2ERKNS_18relation_signatureES6_jPKjS8_jS8_(ptr noundef nonnull align 8 dereferenceable(48) %27, ptr noundef nonnull align 8 dereferenceable(8) %28, ptr noundef nonnull align 8 dereferenceable(8) %29, i32 noundef %3, ptr noundef %4, ptr noundef %5, i32 noundef 0, ptr noundef null)
  store ptr getelementptr inbounds nuw inrange(-16, 24) (i8, ptr @_ZTVN7datalog21table_relation_plugin18tr_join_project_fnE, i64 16), ptr %27, align 8, !tbaa !32
  %30 = getelementptr inbounds nuw i8, ptr %27, i64 40
  store ptr %25, ptr %30, align 8, !tbaa !56
  br label %31

31:                                               ; preds = %26, %18, %6, %12
  %.0 = phi ptr [ null, %12 ], [ null, %6 ], [ %27, %26 ], [ null, %18 ]
  ret ptr %.0
}